target datalayout = "e-m:e-p270:32:32-p271:32:32-p272:64:64-i64:64-i128:128-f80:128-n8:16:32:64-S128"
target triple = "x86_64-pc-linux-gnu"

%"class.icu_77::DayPeriodRules" = type { i8, i8, [24 x i32] }

; Function Attrs: mustprogress nounwind uwtable
define noundef signext i8 @_ZN6icu_7714DayPeriodRules14allHoursAreSetEv(ptr noundef nonnull align 4 dereferenceable(100) %0) #0 align 2 {
  %2 = alloca i8, align 1
  %3 = alloca ptr, align 8
  %4 = alloca i32, align 4
  %5 = alloca i32, align 4
  store ptr %0, ptr %3, align 8, !tbaa !61
  %6 = load ptr, ptr %3, align 8
  call void @llvm.lifetime.start.p0(i64 4, ptr %4) #13
  store i32 0, ptr %4, align 4, !tbaa !14
  br label %7

7:                                                ; preds = %20, %1
  %8 = load i32, ptr %4, align 4, !tbaa !14
  %9 = icmp slt i32 %8, 24
  br i1 %9, label %11, label %10

10:                                               ; preds = %7
  store i32 2, ptr %5, align 4
  br label %23

11:                                               ; preds = %7
  %12 = getelementptr inbounds nuw %"class.icu_77::DayPeriodRules", ptr %6, i32 0, i32 2
  %13 = load i32, ptr %4, align 4, !tbaa !14
  %14 = sext i32 %13 to i64
  %15 = getelementptr inbounds [24 x i32], ptr %12, i64 0, i64 %14
  %16 = load i32, ptr %15, align 4, !tbaa !62
  %17 = icmp eq i32 %16, -1
  br i1 %17, label %18, label %19

18:                                               ; preds = %11
  store i8 0, ptr %2, align 1
  store i32 1, ptr %5, align 4
  br label %23

19:                                               ; preds = %11
  br label %20

20:                                               ; preds = %19
  %21 = load i32, ptr %4, align 4, !tbaa !14
  %22 = add nsw i32 %21, 1
  store i32 %22, ptr %4, align 4, !tbaa !14
  br label %7, !llvm.loop !75

23:                                               ; preds = %18, %10
  call void @llvm.lifetime.end.p0(i64 4, ptr %4) #13
  %24 = load i32, ptr %5, align 4
  switch i32 %24, label %28 [
    i32 2, label %25
    i32 1, label %26
  ]

25:                                               ; preds = %23
  store i8 1, ptr %2, align 1
  br label %26

26:                                               ; preds = %25, %23
  %27 = load i8, ptr %2, align 1
  ret i8 %27

28:                                               ; preds = %23
  unreachable
}