; Function Attrs: mustprogress nofree norecurse nosync nounwind willreturn memory(argmem: read) uwtable
define noundef signext range(i8 0, 2) i8 @_ZN6icu_7714DayPeriodRules14allHoursAreSetEv(ptr noundef nonnull readonly align 4 captures(none) dereferenceable(100) %0) local_unnamed_addr #17 align 2 {
  %2 = getelementptr inbounds nuw i8, ptr %0, i64 4
  br label %3

3:                                                ; preds = %3, %1
  %indvars.iv = phi i64 [ 0, %1 ], [ %indvars.iv.next, %3 ]
  %4 = getelementptr inbounds nuw [24 x i32], ptr %2, i64 0, i64 %indvars.iv
  %5 = load i32, ptr %4, align 4, !tbaa !34
  %.not = icmp ne i32 %5, -1
  %indvars.iv.next = add nuw nsw i64 %indvars.iv, 1
  %exitcond = icmp ne i64 %indvars.iv.next, 24
  %or.cond.not = select i1 %.not, i1 %exitcond, i1 false
  br i1 %or.cond.not, label %3, label %6, !llvm.loop !45

6:                                                ; preds = %3
  %spec.select = zext i1 %.not to i8
  ret i8 %spec.select
}